target datalayout = "e-m:e-p270:32:32-p271:32:32-p272:64:64-i64:64-i128:128-f80:128-n8:16:32:64-S128"
target triple = "x86_64-pc-linux-gnu"

@hf_smb2_mxac_status = internal global i32 0, align 4
@ett_smb2_MxAc_buffer = internal global i32 0, align 4
@.str.2147 = private unnamed_addr constant [10 x i8] c": NO DATA\00", align 1
@.str.2215 = private unnamed_addr constant [12 x i8] c": MxAc INFO\00", align 1
@.str.2216 = private unnamed_addr constant [10 x i8] c"MxAc INFO\00", align 1

; Function Attrs: null_pointer_is_valid sspstrong uwtable
define internal void @dissect_smb2_MxAc_buffer_response(ptr noundef %0, ptr noundef %1, ptr noundef %2, ptr noundef %3) #0 {
  %5 = alloca ptr, align 8
  %6 = alloca ptr, align 8
  %7 = alloca ptr, align 8
  %8 = alloca ptr, align 8
  %9 = alloca i32, align 4
  %10 = alloca ptr, align 8
  %11 = alloca ptr, align 8
  %12 = alloca i32, align 4
  store ptr %0, ptr %5, align 8
  store ptr %1, ptr %6, align 8
  store ptr %2, ptr %7, align 8
  store ptr %3, ptr %8, align 8
  call void @llvm.lifetime.start.p0(i64 4, ptr %9) #13
  store i32 0, ptr %9, align 4
  call void @llvm.lifetime.start.p0(i64 8, ptr %10) #13
  store ptr null, ptr %10, align 8
  call void @llvm.lifetime.start.p0(i64 8, ptr %11) #13
  %13 = load ptr, ptr %7, align 8
  %14 = call ptr @proto_tree_get_parent(ptr noundef %13)
  store ptr %14, ptr %10, align 8
  %15 = load ptr, ptr %5, align 8
  %16 = call i32 @tvb_reported_length(ptr noundef %15)
  %17 = icmp eq i32 %16, 0
  br i1 %17, label %18, label %20

18:                                               ; preds = %4
  %19 = load ptr, ptr %10, align 8
  call void (ptr, ptr, ...) @proto_item_append_text(ptr noundef %19, ptr noundef @.str.2147)
  store i32 1, ptr %12, align 4
  br label %38

20:                                               ; preds = %4
  %21 = load ptr, ptr %10, align 8
  call void (ptr, ptr, ...) @proto_item_append_text(ptr noundef %21, ptr noundef @.str.2215)
  %22 = load ptr, ptr %7, align 8
  %23 = load ptr, ptr %5, align 8
  %24 = load i32, ptr %9, align 4
  %25 = load i32, ptr @ett_smb2_MxAc_buffer, align 4
  %26 = call ptr @proto_tree_add_subtree(ptr noundef %22, ptr noundef %23, i32 noundef %24, i32 noundef -1, i32 noundef %25, ptr noundef null, ptr noundef @.str.2216)
  store ptr %26, ptr %11, align 8
  %27 = load ptr, ptr %11, align 8
  %28 = load i32, ptr @hf_smb2_mxac_status, align 4
  %29 = load ptr, ptr %5, align 8
  %30 = load i32, ptr %9, align 4
  %31 = call ptr @proto_tree_add_item(ptr noundef %27, i32 noundef %28, ptr noundef %29, i32 noundef %30, i32 noundef 4, i32 noundef 0)
  %32 = load i32, ptr %9, align 4
  %33 = add i32 %32, 4
  store i32 %33, ptr %9, align 4
  %34 = load ptr, ptr %5, align 8
  %35 = load ptr, ptr %11, align 8
  %36 = load i32, ptr %9, align 4
  %37 = call i32 @dissect_smb_access_mask(ptr noundef %34, ptr noundef %35, i32 noundef %36)
  store i32 0, ptr %12, align 4
  br label %38

38:                                               ; preds = %20, %18
  call void @llvm.lifetime.end.p0(i64 8, ptr %11) #13
  call void @llvm.lifetime.end.p0(i64 8, ptr %10) #13
  call void @llvm.lifetime.end.p0(i64 4, ptr %9) #13
  %39 = load i32, ptr %12, align 4
  switch i32 %39, label %41 [
    i32 0, label %40
    i32 1, label %40
  ]

40:                                               ; preds = %38, %38
  ret void

41:                                               ; preds = %38
  unreachable
}