; Function Attrs: null_pointer_is_valid sspstrong uwtable
define internal void @dissect_smb2_MxAc_buffer_response(ptr noundef %0, ptr readnone captures(none) %1, ptr noundef %2, ptr readnone captures(none) %3) #0 {
  %5 = tail call ptr @proto_tree_get_parent(ptr noundef %2)
  %6 = tail call i32 @tvb_reported_length(ptr noundef %0)
  %7 = icmp eq i32 %6, 0
  br i1 %7, label %8, label %9

8:                                                ; preds = %4
  tail call void (ptr, ptr, ...) @proto_item_append_text(ptr noundef %5, ptr noundef nonnull @.str.2147)
  br label %15

9:                                                ; preds = %4
  tail call void (ptr, ptr, ...) @proto_item_append_text(ptr noundef %5, ptr noundef nonnull @.str.2215)
  %10 = load i32, ptr @ett_smb2_MxAc_buffer, align 4
  %11 = tail call ptr @proto_tree_add_subtree(ptr noundef %2, ptr noundef %0, i32 noundef 0, i32 noundef -1, i32 noundef %10, ptr noundef null, ptr noundef nonnull @.str.2216)
  %12 = load i32, ptr @hf_smb2_mxac_status, align 4
  %13 = tail call ptr @proto_tree_add_item(ptr noundef %11, i32 noundef %12, ptr noundef %0, i32 noundef 0, i32 noundef 4, i32 noundef 0)
  %14 = tail call i32 @dissect_smb_access_mask(ptr noundef %0, ptr noundef %11, i32 noundef 4)
  br label %15

15:                                               ; preds = %9, %8
  ret void
}